target datalayout = "e-m:e-p270:32:32-p271:32:32-p272:64:64-i64:64-i128:128-f80:128-n8:16:32:64-S128"
target triple = "x86_64-pc-linux-gnu"

%struct._GLXGraphicsConfigInfo = type { i32, i32, ptr, ptr }
%struct.OGLContext = type { ptr, i32, i32, float, i32, i32, i8, i8, i8, i8, i32, i8, ptr, i32, i32, i8 }
%struct._GLXCtxInfo = type { ptr, ptr, i64 }

@.str = private unnamed_addr constant [45 x i8] c"OGLGC_DestroyOGLGraphicsConfig: info is null\00", align 1
@awt_display = external global ptr, align 8
@j2d_glXDestroyContext = external global ptr, align 8
@j2d_glXMakeContextCurrent = external global ptr, align 8
@j2d_glXDestroyPbuffer = external global ptr, align 8
@.str.23 = private unnamed_addr constant [41 x i8] c"GLXGC_DestroyOGLContext: context is null\00", align 1

; Function Attrs: nounwind uwtable
define internal void @GLXGC_DestroyOGLContext(ptr noundef %0) #0 {
  %2 = alloca ptr, align 8
  %3 = alloca ptr, align 8
  store ptr %0, ptr %2, align 8
  %4 = load ptr, ptr %2, align 8
  %5 = icmp eq ptr %4, null
  br i1 %5, label %6, label %7

6:                                                ; preds = %1
  call void (i32, i8, ptr, ...) @J2dTraceImpl(i32 noundef 1, i8 noundef zeroext 1, ptr noundef @.str.23)
  br label %43

7:                                                ; preds = %1
  %8 = load ptr, ptr %2, align 8
  call void @OGLContext_DestroyContextResources(ptr noundef %8)
  %9 = load ptr, ptr %2, align 8
  %10 = getelementptr inbounds %struct.OGLContext, ptr %9, i32 0, i32 0
  %11 = load ptr, ptr %10, align 8
  store ptr %11, ptr %3, align 8
  %12 = load ptr, ptr %3, align 8
  %13 = icmp ne ptr %12, null
  br i1 %13, label %14, label %41

14:                                               ; preds = %7
  %15 = load ptr, ptr @j2d_glXMakeContextCurrent, align 8
  %16 = load ptr, ptr @awt_display, align 8
  %17 = call i32 %15(ptr noundef %16, i64 noundef 0, i64 noundef 0, ptr noundef null)
  %18 = load ptr, ptr %3, align 8
  %19 = getelementptr inbounds %struct._GLXCtxInfo, ptr %18, i32 0, i32 0
  %20 = load ptr, ptr %19, align 8
  %21 = icmp ne ptr %20, null
  br i1 %21, label %22, label %28

22:                                               ; preds = %14
  %23 = load ptr, ptr @j2d_glXDestroyContext, align 8
  %24 = load ptr, ptr @awt_display, align 8
  %25 = load ptr, ptr %3, align 8
  %26 = getelementptr inbounds %struct._GLXCtxInfo, ptr %25, i32 0, i32 0
  %27 = load ptr, ptr %26, align 8
  call void %23(ptr noundef %24, ptr noundef %27)
  br label %28

28:                                               ; preds = %22, %14
  %29 = load ptr, ptr %3, align 8
  %30 = getelementptr inbounds %struct._GLXCtxInfo, ptr %29, i32 0, i32 2
  %31 = load i64, ptr %30, align 8
  %32 = icmp ne i64 %31, 0
  br i1 %32, label %33, label %39

33:                                               ; preds = %28
  %34 = load ptr, ptr @j2d_glXDestroyPbuffer, align 8
  %35 = load ptr, ptr @awt_display, align 8
  %36 = load ptr, ptr %3, align 8
  %37 = getelementptr inbounds %struct._GLXCtxInfo, ptr %36, i32 0, i32 2
  %38 = load i64, ptr %37, align 8
  call void %34(ptr noundef %35, i64 noundef %38)
  br label %39

39:                                               ; preds = %33, %28
  %40 = load ptr, ptr %3, align 8
  call void @free(ptr noundef %40) #6
  br label %41

41:                                               ; preds = %39, %7
  %42 = load ptr, ptr %2, align 8
  call void @free(ptr noundef %42) #6
  br label %43

43:                                               ; preds = %41, %6
  ret void
}

; Function Attrs: nounwind uwtable
define hidden void @OGLGC_DestroyOGLGraphicsConfig(i64 noundef %0) #0 {
  %2 = alloca i64, align 8
  %3 = alloca ptr, align 8
  store i64 %0, ptr %2, align 8
  %4 = load i64, ptr %2, align 8
  %5 = inttoptr i64 %4 to ptr
  store ptr %5, ptr %3, align 8
  %6 = load ptr, ptr %3, align 8
  %7 = icmp eq ptr %6, null
  br i1 %7, label %8, label %9

8:                                                ; preds = %1
  call void (i32, i8, ptr, ...) @J2dTraceImpl(i32 noundef 1, i8 noundef zeroext 1, ptr noundef @.str)
  br label %20

9:                                                ; preds = %1
  %10 = load ptr, ptr %3, align 8
  %11 = getelementptr inbounds %struct._GLXGraphicsConfigInfo, ptr %10, i32 0, i32 2
  %12 = load ptr, ptr %11, align 8
  %13 = icmp ne ptr %12, null
  br i1 %13, label %14, label %18

14:                                               ; preds = %9
  %15 = load ptr, ptr %3, align 8
  %16 = getelementptr inbounds %struct._GLXGraphicsConfigInfo, ptr %15, i32 0, i32 2
  %17 = load ptr, ptr %16, align 8
  call void @GLXGC_DestroyOGLContext(ptr noundef %17)
  br label %18

18:                                               ; preds = %14, %9
  %19 = load ptr, ptr %3, align 8
  call void @free(ptr noundef %19) #6
  br label %20

20:                                               ; preds = %18, %8
  ret void
}