; Function Attrs: nounwind uwtable
define hidden void @OGLGC_DestroyOGLGraphicsConfig(i64 noundef %0) local_unnamed_addr #0 {
  %2 = inttoptr i64 %0 to ptr
  %3 = icmp eq i64 %0, 0
  br i1 %3, label %4, label %5

4:                                                ; preds = %1
  tail call void (i32, i8, ptr, ...) @J2dTraceImpl(i32 noundef 1, i8 noundef zeroext 1, ptr noundef nonnull @.str) #8
  br label %26

5:                                                ; preds = %1
  %6 = getelementptr inbounds i8, ptr %2, i64 8
  %7 = load ptr, ptr %6, align 8
  %.not = icmp eq ptr %7, null
  br i1 %.not, label %25, label %8

8:                                                ; preds = %5
  tail call void @OGLContext_DestroyContextResources(ptr noundef nonnull %7) #8
  %9 = load ptr, ptr %7, align 8
  %.not.i = icmp eq ptr %9, null
  br i1 %.not.i, label %GLXGC_DestroyOGLContext.exit, label %10

10:                                               ; preds = %8
  %11 = load ptr, ptr @j2d_glXMakeContextCurrent, align 8
  %12 = load ptr, ptr @awt_display, align 8
  %13 = tail call i32 %11(ptr noundef %12, i64 noundef 0, i64 noundef 0, ptr noundef null) #8
  %14 = load ptr, ptr %9, align 8
  %.not13.i = icmp eq ptr %14, null
  br i1 %.not13.i, label %18, label %15

15:                                               ; preds = %10
  %16 = load ptr, ptr @j2d_glXDestroyContext, align 8
  %17 = load ptr, ptr @awt_display, align 8
  tail call void %16(ptr noundef %17, ptr noundef nonnull %14) #8
  br label %18

18:                                               ; preds = %15, %10
  %19 = getelementptr inbounds i8, ptr %9, i64 16
  %20 = load i64, ptr %19, align 8
  %.not14.i = icmp eq i64 %20, 0
  br i1 %.not14.i, label %24, label %21

21:                                               ; preds = %18
  %22 = load ptr, ptr @j2d_glXDestroyPbuffer, align 8
  %23 = load ptr, ptr @awt_display, align 8
  tail call void %22(ptr noundef %23, i64 noundef %20) #8
  br label %24

24:                                               ; preds = %21, %18
  tail call void @free(ptr noundef nonnull %9) #8
  br label %GLXGC_DestroyOGLContext.exit

GLXGC_DestroyOGLContext.exit:                     ; preds = %8, %24
  tail call void @free(ptr noundef nonnull %7) #8
  br label %25

25:                                               ; preds = %GLXGC_DestroyOGLContext.exit, %5
  tail call void @free(ptr noundef nonnull %2) #8
  br label %26

26:                                               ; preds = %25, %4
  ret void
}